target datalayout = "e-m:e-p270:32:32-p271:32:32-p272:64:64-i64:64-i128:128-f80:128-n8:16:32:64-S128"
target triple = "x86_64-pc-linux-gnu"

; Function Attrs: mustprogress nounwind uwtable
define linkonce_odr hidden void @_ZN2cv12cpu_baseline15accSqr_general_IhfEEvPKT_PT0_PKhiii(ptr noundef %0, ptr noundef %1, ptr noundef %2, i32 noundef %3, i32 noundef %4, i32 noundef %5) #2 comdat {
  %7 = alloca ptr, align 8
  %8 = alloca ptr, align 8
  %9 = alloca ptr, align 8
  %10 = alloca i32, align 4
  %11 = alloca i32, align 4
  %12 = alloca i32, align 4
  %13 = alloca i32, align 4
  %14 = alloca i32, align 4
  store ptr %0, ptr %7, align 8, !tbaa !3
  store ptr %1, ptr %8, align 8, !tbaa !8
  store ptr %2, ptr %9, align 8, !tbaa !3
  store i32 %3, ptr %10, align 4, !tbaa !10
  store i32 %4, ptr %11, align 4, !tbaa !10
  store i32 %5, ptr %12, align 4, !tbaa !10
  call void @llvm.lifetime.start.p0(i64 4, ptr %13) #4
  %15 = load i32, ptr %12, align 4, !tbaa !10
  store i32 %15, ptr %13, align 4, !tbaa !10
  %16 = load ptr, ptr %9, align 8, !tbaa !3
  %17 = icmp ne ptr %16, null
  br i1 %17, label %50, label %18

18:                                               ; preds = %6
  %19 = load i32, ptr %11, align 4, !tbaa !10
  %20 = load i32, ptr %10, align 4, !tbaa !10
  %21 = mul nsw i32 %20, %19
  store i32 %21, ptr %10, align 4, !tbaa !10
  br label %22

22:                                               ; preds = %46, %18
  %23 = load i32, ptr %13, align 4, !tbaa !10
  %24 = load i32, ptr %10, align 4, !tbaa !10
  %25 = icmp slt i32 %23, %24
  br i1 %25, label %26, label %49

26:                                               ; preds = %22
  %27 = load ptr, ptr %7, align 8, !tbaa !3
  %28 = load i32, ptr %13, align 4, !tbaa !10
  %29 = sext i32 %28 to i64
  %30 = getelementptr inbounds i8, ptr %27, i64 %29
  %31 = load i8, ptr %30, align 1, !tbaa !12
  %32 = uitofp i8 %31 to float
  %33 = load ptr, ptr %7, align 8, !tbaa !3
  %34 = load i32, ptr %13, align 4, !tbaa !10
  %35 = sext i32 %34 to i64
  %36 = getelementptr inbounds i8, ptr %33, i64 %35
  %37 = load i8, ptr %36, align 1, !tbaa !12
  %38 = zext i8 %37 to i32
  %39 = sitofp i32 %38 to float
  %40 = load ptr, ptr %8, align 8, !tbaa !8
  %41 = load i32, ptr %13, align 4, !tbaa !10
  %42 = sext i32 %41 to i64
  %43 = getelementptr inbounds float, ptr %40, i64 %42
  %44 = load float, ptr %43, align 4, !tbaa !13
  %45 = call float @llvm.fmuladd.f32(float %32, float %39, float %44)
  store float %45, ptr %43, align 4, !tbaa !13
  br label %46

46:                                               ; preds = %26
  %47 = load i32, ptr %13, align 4, !tbaa !10
  %48 = add nsw i32 %47, 1
  store i32 %48, ptr %13, align 4, !tbaa !10
  br label %22, !llvm.loop !45

49:                                               ; preds = %22
  br label %117

50:                                               ; preds = %6
  %51 = load i32, ptr %13, align 4, !tbaa !10
  %52 = load i32, ptr %11, align 4, !tbaa !10
  %53 = mul nsw i32 %51, %52
  %54 = load ptr, ptr %7, align 8, !tbaa !3
  %55 = sext i32 %53 to i64
  %56 = getelementptr inbounds i8, ptr %54, i64 %55
  store ptr %56, ptr %7, align 8, !tbaa !3
  %57 = load i32, ptr %13, align 4, !tbaa !10
  %58 = load i32, ptr %11, align 4, !tbaa !10
  %59 = mul nsw i32 %57, %58
  %60 = load ptr, ptr %8, align 8, !tbaa !8
  %61 = sext i32 %59 to i64
  %62 = getelementptr inbounds float, ptr %60, i64 %61
  store ptr %62, ptr %8, align 8, !tbaa !8
  br label %63

63:                                               ; preds = %105, %50
  %64 = load i32, ptr %13, align 4, !tbaa !10
  %65 = load i32, ptr %10, align 4, !tbaa !10
  %66 = icmp slt i32 %64, %65
  br i1 %66, label %67, label %116

67:                                               ; preds = %63
  %68 = load ptr, ptr %9, align 8, !tbaa !3
  %69 = load i32, ptr %13, align 4, !tbaa !10
  %70 = sext i32 %69 to i64
  %71 = getelementptr inbounds i8, ptr %68, i64 %70
  %72 = load i8, ptr %71, align 1, !tbaa !12
  %73 = icmp ne i8 %72, 0
  br i1 %73, label %74, label %104

74:                                               ; preds = %67
  call void @llvm.lifetime.start.p0(i64 4, ptr %14) #4
  store i32 0, ptr %14, align 4, !tbaa !10
  br label %75

75:                                               ; preds = %100, %74
  %76 = load i32, ptr %14, align 4, !tbaa !10
  %77 = load i32, ptr %11, align 4, !tbaa !10
  %78 = icmp slt i32 %76, %77
  br i1 %78, label %80, label %79

79:                                               ; preds = %75
  call void @llvm.lifetime.end.p0(i64 4, ptr %14) #4
  br label %103

80:                                               ; preds = %75
  %81 = load ptr, ptr %7, align 8, !tbaa !3
  %82 = load i32, ptr %14, align 4, !tbaa !10
  %83 = sext i32 %82 to i64
  %84 = getelementptr inbounds i8, ptr %81, i64 %83
  %85 = load i8, ptr %84, align 1, !tbaa !12
  %86 = uitofp i8 %85 to float
  %87 = load ptr, ptr %7, align 8, !tbaa !3
  %88 = load i32, ptr %14, align 4, !tbaa !10
  %89 = sext i32 %88 to i64
  %90 = getelementptr inbounds i8, ptr %87, i64 %89
  %91 = load i8, ptr %90, align 1, !tbaa !12
  %92 = zext i8 %91 to i32
  %93 = sitofp i32 %92 to float
  %94 = load ptr, ptr %8, align 8, !tbaa !8
  %95 = load i32, ptr %14, align 4, !tbaa !10
  %96 = sext i32 %95 to i64
  %97 = getelementptr inbounds float, ptr %94, i64 %96
  %98 = load float, ptr %97, align 4, !tbaa !13
  %99 = call float @llvm.fmuladd.f32(float %86, float %93, float %98)
  store float %99, ptr %97, align 4, !tbaa !13
  br label %100

100:                                              ; preds = %80
  %101 = load i32, ptr %14, align 4, !tbaa !10
  %102 = add nsw i32 %101, 1
  store i32 %102, ptr %14, align 4, !tbaa !10
  br label %75, !llvm.loop !46

103:                                              ; preds = %79
  br label %104

104:                                              ; preds = %103, %67
  br label %105

105:                                              ; preds = %104
  %106 = load i32, ptr %13, align 4, !tbaa !10
  %107 = add nsw i32 %106, 1
  store i32 %107, ptr %13, align 4, !tbaa !10
  %108 = load i32, ptr %11, align 4, !tbaa !10
  %109 = load ptr, ptr %7, align 8, !tbaa !3
  %110 = sext i32 %108 to i64
  %111 = getelementptr inbounds i8, ptr %109, i64 %110
  store ptr %111, ptr %7, align 8, !tbaa !3
  %112 = load i32, ptr %11, align 4, !tbaa !10
  %113 = load ptr, ptr %8, align 8, !tbaa !8
  %114 = sext i32 %112 to i64
  %115 = getelementptr inbounds float, ptr %113, i64 %114
  store ptr %115, ptr %8, align 8, !tbaa !8
  br label %63, !llvm.loop !47

116:                                              ; preds = %63
  br label %117

117:                                              ; preds = %116, %49
  call void @llvm.lifetime.end.p0(i64 4, ptr %13) #4
  ret void
}

; Function Attrs: mustprogress uwtable
define hidden void @_ZN2cv12cpu_baseline12accSqr_simd_EPKhPfS2_ii(ptr noundef %0, ptr noundef %1, ptr noundef %2, i32 noundef %3, i32 noundef %4) #0 {
  %6 = alloca ptr, align 8
  %7 = alloca ptr, align 8
  %8 = alloca ptr, align 8
  %9 = alloca i32, align 4
  %10 = alloca i32, align 4
  %11 = alloca i32, align 4
  store ptr %0, ptr %6, align 8, !tbaa !3
  store ptr %1, ptr %7, align 8, !tbaa !8
  store ptr %2, ptr %8, align 8, !tbaa !3
  store i32 %3, ptr %9, align 4, !tbaa !10
  store i32 %4, ptr %10, align 4, !tbaa !10
  call void @llvm.lifetime.start.p0(i64 4, ptr %11) #4
  store i32 0, ptr %11, align 4, !tbaa !10
  %12 = load ptr, ptr %6, align 8, !tbaa !3
  %13 = load ptr, ptr %7, align 8, !tbaa !8
  %14 = load ptr, ptr %8, align 8, !tbaa !3
  %15 = load i32, ptr %9, align 4, !tbaa !10
  %16 = load i32, ptr %10, align 4, !tbaa !10
  %17 = load i32, ptr %11, align 4, !tbaa !10
  call void @_ZN2cv12cpu_baseline15accSqr_general_IhfEEvPKT_PT0_PKhiii(ptr noundef %12, ptr noundef %13, ptr noundef %14, i32 noundef %15, i32 noundef %16, i32 noundef %17)
  call void @llvm.lifetime.end.p0(i64 4, ptr %11) #4
  ret void
}